; Function Attrs: mustprogress nofree norecurse nosync nounwind willreturn memory(argmem: read) uwtable
define internal noundef zeroext i1 @_ZNK7rocksdb12_GLOBAL__N_115HashSkipListRep8Iterator5ValidEv(ptr nocapture noundef nonnull readonly align 8 dereferenceable(80) %this) unnamed_addr #11 align 2 {
entry:
  %list_ = getelementptr inbounds i8, ptr %this, i64 8
  %0 = load ptr, ptr %list_, align 8
  %cmp.not = icmp ne ptr %0, null
  %node_.i = getelementptr inbounds i8, ptr %this, i64 24
  %1 = load ptr, ptr %node_.i, align 8
  %cmp.i = icmp ne ptr %1, null
  %2 = select i1 %cmp.not, i1 %cmp.i, i1 false
  ret i1 %2
}